target datalayout = "e-m:e-p270:32:32-p271:32:32-p272:64:64-i64:64-i128:128-f80:128-n8:16:32:64-S128"
target triple = "x86_64-pc-linux-gnu"

@.str.621 = private unnamed_addr constant [6 x i8] c"%s:%c\00", align 1

; Function Attrs: nounwind uwtable
define internal i32 @opt_old2new(ptr noundef %0, ptr noundef %1, ptr noundef %2) #0 {
  %4 = alloca i32, align 4
  %5 = alloca ptr, align 8
  %6 = alloca ptr, align 8
  %7 = alloca ptr, align 8
  %8 = alloca ptr, align 8
  %9 = alloca i32, align 4
  %10 = alloca ptr, align 8
  %11 = alloca i32, align 4
  store ptr %0, ptr %5, align 8, !tbaa !26
  store ptr %1, ptr %6, align 8, !tbaa !23
  store ptr %2, ptr %7, align 8, !tbaa !23
  call void @llvm.lifetime.start.p0(i64 8, ptr %8) #12
  %12 = load ptr, ptr %5, align 8, !tbaa !26
  store ptr %12, ptr %8, align 8, !tbaa !151
  call void @llvm.lifetime.start.p0(i64 4, ptr %9) #12
  call void @llvm.lifetime.start.p0(i64 8, ptr %10) #12
  %13 = load ptr, ptr %6, align 8, !tbaa !23
  %14 = getelementptr inbounds i8, ptr %13, i64 1
  %15 = load ptr, ptr %6, align 8, !tbaa !23
  %16 = load i8, ptr %15, align 1, !tbaa !9
  %17 = sext i8 %16 to i32
  %18 = call ptr (ptr, ...) @av_asprintf(ptr noundef @.str.621, ptr noundef %14, i32 noundef %17)
  store ptr %18, ptr %10, align 8, !tbaa !23
  %19 = load ptr, ptr %10, align 8, !tbaa !23
  %20 = icmp ne ptr %19, null
  br i1 %20, label %22, label %21

21:                                               ; preds = %3
  store i32 -12, ptr %4, align 4
  store i32 1, ptr %11, align 4
  br label %29

22:                                               ; preds = %3
  %23 = load ptr, ptr %8, align 8, !tbaa !151
  %24 = load ptr, ptr %10, align 8, !tbaa !23
  %25 = load ptr, ptr %7, align 8, !tbaa !23
  %26 = call i32 @parse_option(ptr noundef %23, ptr noundef %24, ptr noundef %25, ptr noundef @options)
  store i32 %26, ptr %9, align 4, !tbaa !16
  %27 = load ptr, ptr %10, align 8, !tbaa !23
  call void @av_free(ptr noundef %27)
  %28 = load i32, ptr %9, align 4, !tbaa !16
  store i32 %28, ptr %4, align 4
  store i32 1, ptr %11, align 4
  br label %29

29:                                               ; preds = %22, %21
  call void @llvm.lifetime.end.p0(i64 8, ptr %10) #12
  call void @llvm.lifetime.end.p0(i64 4, ptr %9) #12
  call void @llvm.lifetime.end.p0(i64 8, ptr %8) #12
  %30 = load i32, ptr %4, align 4
  ret i32 %30
}