; Function Attrs: nounwind uwtable
define internal i32 @opt_old2new(ptr noundef %0, ptr noundef %1, ptr noundef %2) #0 {
  %4 = getelementptr inbounds nuw i8, ptr %1, i64 1
  %5 = load i8, ptr %1, align 1, !tbaa !19
  %6 = sext i8 %5 to i32
  %7 = tail call ptr (ptr, ...) @av_asprintf(ptr noundef nonnull @.str.621, ptr noundef nonnull %4, i32 noundef %6) #15
  %.not = icmp eq ptr %7, null
  br i1 %.not, label %10, label %8

8:                                                ; preds = %3
  %9 = tail call i32 @parse_option(ptr noundef %0, ptr noundef nonnull %7, ptr noundef %2, ptr noundef nonnull @options) #15
  tail call void @av_free(ptr noundef nonnull %7) #15
  br label %10

10:                                               ; preds = %3, %8
  %.0 = phi i32 [ %9, %8 ], [ -12, %3 ]
  ret i32 %.0
}